
sef-project.elf:     file format elf32-avr

Sections:
Idx Name          Size      VMA       LMA       File off  Algn
  0 .text         00000b20  00000000  00000000  00000094  2**1
                  CONTENTS, ALLOC, LOAD, READONLY, CODE
  1 .data         00000072  00800060  00000b20  00000bb4  2**0
                  CONTENTS, ALLOC, LOAD, DATA
  2 .bss          0000001e  008000d2  008000d2  00000c26  2**0
                  ALLOC
  3 .comment      00000030  00000000  00000000  00000c26  2**0
                  CONTENTS, READONLY
  4 .note.gnu.avr.deviceinfo 0000003c  00000000  00000000  00000c58  2**2
                  CONTENTS, READONLY
  5 .debug_aranges 000000f8  00000000  00000000  00000c94  2**0
                  CONTENTS, READONLY, DEBUGGING
  6 .debug_info   0000143b  00000000  00000000  00000d8c  2**0
                  CONTENTS, READONLY, DEBUGGING
  7 .debug_abbrev 000009f8  00000000  00000000  000021c7  2**0
                  CONTENTS, READONLY, DEBUGGING
  8 .debug_line   00000b94  00000000  00000000  00002bbf  2**0
                  CONTENTS, READONLY, DEBUGGING
  9 .debug_frame  00000260  00000000  00000000  00003754  2**2
                  CONTENTS, READONLY, DEBUGGING
 10 .debug_str    00000598  00000000  00000000  000039b4  2**0
                  CONTENTS, READONLY, DEBUGGING
 11 .debug_loc    000009d1  00000000  00000000  00003f4c  2**0
                  CONTENTS, READONLY, DEBUGGING
 12 .debug_ranges 000000d8  00000000  00000000  0000491d  2**0
                  CONTENTS, READONLY, DEBUGGING

Disassembly of section .text:

00000000 <__vectors>:
   0:	0c 94 2a 00 	jmp	0x54	; 0x54 <__ctors_end>
   4:	0c 94 47 00 	jmp	0x8e	; 0x8e <__bad_interrupt>
   8:	0c 94 47 00 	jmp	0x8e	; 0x8e <__bad_interrupt>
   c:	0c 94 47 00 	jmp	0x8e	; 0x8e <__bad_interrupt>
  10:	0c 94 47 00 	jmp	0x8e	; 0x8e <__bad_interrupt>
  14:	0c 94 47 00 	jmp	0x8e	; 0x8e <__bad_interrupt>
  18:	0c 94 fa 03 	jmp	0x7f4	; 0x7f4 <__vector_6>
  1c:	0c 94 47 00 	jmp	0x8e	; 0x8e <__bad_interrupt>
  20:	0c 94 47 00 	jmp	0x8e	; 0x8e <__bad_interrupt>
  24:	0c 94 47 00 	jmp	0x8e	; 0x8e <__bad_interrupt>
  28:	0c 94 47 00 	jmp	0x8e	; 0x8e <__bad_interrupt>
  2c:	0c 94 47 00 	jmp	0x8e	; 0x8e <__bad_interrupt>
  30:	0c 94 47 00 	jmp	0x8e	; 0x8e <__bad_interrupt>
  34:	0c 94 47 00 	jmp	0x8e	; 0x8e <__bad_interrupt>
  38:	0c 94 47 00 	jmp	0x8e	; 0x8e <__bad_interrupt>
  3c:	0c 94 47 00 	jmp	0x8e	; 0x8e <__bad_interrupt>
  40:	0c 94 47 00 	jmp	0x8e	; 0x8e <__bad_interrupt>
  44:	0c 94 47 00 	jmp	0x8e	; 0x8e <__bad_interrupt>
  48:	0c 94 47 00 	jmp	0x8e	; 0x8e <__bad_interrupt>
  4c:	0c 94 e8 03 	jmp	0x7d0	; 0x7d0 <__vector_19>
  50:	0c 94 47 00 	jmp	0x8e	; 0x8e <__bad_interrupt>

00000054 <__ctors_end>:
  54:	11 24       	eor	r1, r1
  56:	1f be       	out	0x3f, r1	; 63
  58:	cf e5       	ldi	r28, 0x5F	; 95
  5a:	d4 e0       	ldi	r29, 0x04	; 4
  5c:	de bf       	out	0x3e, r29	; 62
  5e:	cd bf       	out	0x3d, r28	; 61

00000060 <__do_copy_data>:
  60:	10 e0       	ldi	r17, 0x00	; 0
  62:	a0 e6       	ldi	r26, 0x60	; 96
  64:	b0 e0       	ldi	r27, 0x00	; 0
  66:	e0 e2       	ldi	r30, 0x20	; 32
  68:	fb e0       	ldi	r31, 0x0B	; 11
  6a:	02 c0       	rjmp	.+4      	; 0x70 <__do_copy_data+0x10>
  6c:	05 90       	lpm	r0, Z+
  6e:	0d 92       	st	X+, r0
  70:	a2 3d       	cpi	r26, 0xD2	; 210
  72:	b1 07       	cpc	r27, r17
  74:	d9 f7       	brne	.-10     	; 0x6c <__do_copy_data+0xc>

00000076 <__do_clear_bss>:
  76:	20 e0       	ldi	r18, 0x00	; 0
  78:	a2 ed       	ldi	r26, 0xD2	; 210
  7a:	b0 e0       	ldi	r27, 0x00	; 0
  7c:	01 c0       	rjmp	.+2      	; 0x80 <.do_clear_bss_start>

0000007e <.do_clear_bss_loop>:
  7e:	1d 92       	st	X+, r1

00000080 <.do_clear_bss_start>:
  80:	a0 3f       	cpi	r26, 0xF0	; 240
  82:	b2 07       	cpc	r27, r18
  84:	e1 f7       	brne	.-8      	; 0x7e <.do_clear_bss_loop>
  86:	0e 94 4e 04 	call	0x89c	; 0x89c <main>
  8a:	0c 94 8e 05 	jmp	0xb1c	; 0xb1c <_exit>

0000008e <__bad_interrupt>:
  8e:	0c 94 00 00 	jmp	0	; 0x0 <__vectors>

00000092 <toggle_e>:

    while ( (c = pgm_read_byte(progmem_s++)) ) {
        lcd_putc(c);
    }

}/* lcd_puts_p */
  92:	82 b3       	in	r24, 0x12	; 18
  94:	80 68       	ori	r24, 0x80	; 128
  96:	82 bb       	out	0x12, r24	; 18
  98:	00 c0       	rjmp	.+0      	; 0x9a <toggle_e+0x8>
  9a:	82 b3       	in	r24, 0x12	; 18
  9c:	8f 77       	andi	r24, 0x7F	; 127
  9e:	82 bb       	out	0x12, r24	; 18
  a0:	08 95       	ret

000000a2 <lcd_write>:
  a2:	cf 93       	push	r28
  a4:	df 93       	push	r29
  a6:	d8 2f       	mov	r29, r24
  a8:	66 23       	and	r22, r22
  aa:	21 f0       	breq	.+8      	; 0xb4 <lcd_write+0x12>
  ac:	8b b3       	in	r24, 0x1b	; 27
  ae:	80 68       	ori	r24, 0x80	; 128
  b0:	8b bb       	out	0x1b, r24	; 27
  b2:	03 c0       	rjmp	.+6      	; 0xba <lcd_write+0x18>
  b4:	8b b3       	in	r24, 0x1b	; 27
  b6:	8f 77       	andi	r24, 0x7F	; 127
  b8:	8b bb       	out	0x1b, r24	; 27
  ba:	82 b3       	in	r24, 0x12	; 18
  bc:	8f 7b       	andi	r24, 0xBF	; 191
  be:	82 bb       	out	0x12, r24	; 18
  c0:	81 b3       	in	r24, 0x11	; 17
  c2:	8f 60       	ori	r24, 0x0F	; 15
  c4:	81 bb       	out	0x11, r24	; 17
  c6:	c2 b3       	in	r28, 0x12	; 18
  c8:	c0 7f       	andi	r28, 0xF0	; 240
  ca:	8d 2f       	mov	r24, r29
  cc:	82 95       	swap	r24
  ce:	8f 70       	andi	r24, 0x0F	; 15
  d0:	8c 2b       	or	r24, r28
  d2:	82 bb       	out	0x12, r24	; 18
  d4:	0e 94 49 00 	call	0x92	; 0x92 <toggle_e>
  d8:	df 70       	andi	r29, 0x0F	; 15
  da:	dc 2b       	or	r29, r28
  dc:	d2 bb       	out	0x12, r29	; 18
  de:	0e 94 49 00 	call	0x92	; 0x92 <toggle_e>
  e2:	cf 60       	ori	r28, 0x0F	; 15
  e4:	c2 bb       	out	0x12, r28	; 18
  e6:	df 91       	pop	r29
  e8:	cf 91       	pop	r28
  ea:	08 95       	ret

000000ec <lcd_read>:
  ec:	88 23       	and	r24, r24
  ee:	21 f0       	breq	.+8      	; 0xf8 <lcd_read+0xc>
  f0:	8b b3       	in	r24, 0x1b	; 27
  f2:	80 68       	ori	r24, 0x80	; 128
  f4:	8b bb       	out	0x1b, r24	; 27
  f6:	03 c0       	rjmp	.+6      	; 0xfe <lcd_read+0x12>
  f8:	8b b3       	in	r24, 0x1b	; 27
  fa:	8f 77       	andi	r24, 0x7F	; 127
  fc:	8b bb       	out	0x1b, r24	; 27
  fe:	82 b3       	in	r24, 0x12	; 18
 100:	80 64       	ori	r24, 0x40	; 64
 102:	82 bb       	out	0x12, r24	; 18
 104:	81 b3       	in	r24, 0x11	; 17
 106:	80 7f       	andi	r24, 0xF0	; 240
 108:	81 bb       	out	0x11, r24	; 17
 10a:	82 b3       	in	r24, 0x12	; 18
 10c:	80 68       	ori	r24, 0x80	; 128
 10e:	82 bb       	out	0x12, r24	; 18
 110:	00 c0       	rjmp	.+0      	; 0x112 <lcd_read+0x26>
 112:	90 b3       	in	r25, 0x10	; 16
 114:	92 95       	swap	r25
 116:	90 7f       	andi	r25, 0xF0	; 240
 118:	82 b3       	in	r24, 0x12	; 18
 11a:	8f 77       	andi	r24, 0x7F	; 127
 11c:	82 bb       	out	0x12, r24	; 18
 11e:	00 c0       	rjmp	.+0      	; 0x120 <lcd_read+0x34>
 120:	82 b3       	in	r24, 0x12	; 18
 122:	80 68       	ori	r24, 0x80	; 128
 124:	82 bb       	out	0x12, r24	; 18
 126:	00 c0       	rjmp	.+0      	; 0x128 <lcd_read+0x3c>
 128:	80 b3       	in	r24, 0x10	; 16
 12a:	8f 70       	andi	r24, 0x0F	; 15
 12c:	22 b3       	in	r18, 0x12	; 18
 12e:	2f 77       	andi	r18, 0x7F	; 127
 130:	22 bb       	out	0x12, r18	; 18
 132:	89 2b       	or	r24, r25
 134:	08 95       	ret

00000136 <lcd_waitbusy>:
 136:	80 e0       	ldi	r24, 0x00	; 0
 138:	0e 94 76 00 	call	0xec	; 0xec <lcd_read>
 13c:	88 23       	and	r24, r24
 13e:	dc f3       	brlt	.-10     	; 0x136 <lcd_waitbusy>
 140:	83 e0       	ldi	r24, 0x03	; 3
 142:	90 e0       	ldi	r25, 0x00	; 0
 144:	01 97       	sbiw	r24, 0x01	; 1
 146:	f1 f7       	brne	.-4      	; 0x144 <lcd_waitbusy+0xe>
 148:	80 e0       	ldi	r24, 0x00	; 0
 14a:	0e 94 76 00 	call	0xec	; 0xec <lcd_read>
 14e:	08 95       	ret

00000150 <lcd_command>:
 150:	cf 93       	push	r28
 152:	c8 2f       	mov	r28, r24
 154:	0e 94 9b 00 	call	0x136	; 0x136 <lcd_waitbusy>
 158:	60 e0       	ldi	r22, 0x00	; 0
 15a:	8c 2f       	mov	r24, r28
 15c:	0e 94 51 00 	call	0xa2	; 0xa2 <lcd_write>
 160:	cf 91       	pop	r28
 162:	08 95       	ret

00000164 <lcd_gotoxy>:
 164:	61 11       	cpse	r22, r1
 166:	04 c0       	rjmp	.+8      	; 0x170 <lcd_gotoxy+0xc>
 168:	80 58       	subi	r24, 0x80	; 128
 16a:	0e 94 a8 00 	call	0x150	; 0x150 <lcd_command>
 16e:	08 95       	ret
 170:	80 54       	subi	r24, 0x40	; 64
 172:	0e 94 a8 00 	call	0x150	; 0x150 <lcd_command>
 176:	08 95       	ret

00000178 <lcd_clrscr>:
 178:	81 e0       	ldi	r24, 0x01	; 1
 17a:	0e 94 a8 00 	call	0x150	; 0x150 <lcd_command>
 17e:	08 95       	ret

00000180 <lcd_putc>:
 180:	cf 93       	push	r28
 182:	c8 2f       	mov	r28, r24
 184:	0e 94 9b 00 	call	0x136	; 0x136 <lcd_waitbusy>
 188:	ca 30       	cpi	r28, 0x0A	; 10
 18a:	49 f4       	brne	.+18     	; 0x19e <lcd_putc+0x1e>
 18c:	80 34       	cpi	r24, 0x40	; 64
 18e:	10 f4       	brcc	.+4      	; 0x194 <lcd_putc+0x14>
 190:	80 e4       	ldi	r24, 0x40	; 64
 192:	01 c0       	rjmp	.+2      	; 0x196 <lcd_putc+0x16>
 194:	80 e0       	ldi	r24, 0x00	; 0
 196:	80 58       	subi	r24, 0x80	; 128
 198:	0e 94 a8 00 	call	0x150	; 0x150 <lcd_command>
 19c:	04 c0       	rjmp	.+8      	; 0x1a6 <lcd_putc+0x26>
 19e:	61 e0       	ldi	r22, 0x01	; 1
 1a0:	8c 2f       	mov	r24, r28
 1a2:	0e 94 51 00 	call	0xa2	; 0xa2 <lcd_write>
 1a6:	cf 91       	pop	r28
 1a8:	08 95       	ret

000001aa <lcd_puts>:
 1aa:	cf 93       	push	r28
 1ac:	df 93       	push	r29
 1ae:	fc 01       	movw	r30, r24
 1b0:	03 c0       	rjmp	.+6      	; 0x1b8 <lcd_puts+0xe>
 1b2:	0e 94 c0 00 	call	0x180	; 0x180 <lcd_putc>
 1b6:	fe 01       	movw	r30, r28
 1b8:	ef 01       	movw	r28, r30
 1ba:	21 96       	adiw	r28, 0x01	; 1
 1bc:	80 81       	ld	r24, Z
 1be:	81 11       	cpse	r24, r1
 1c0:	f8 cf       	rjmp	.-16     	; 0x1b2 <lcd_puts+0x8>
 1c2:	df 91       	pop	r29
 1c4:	cf 91       	pop	r28
 1c6:	08 95       	ret

000001c8 <lcd_init>:
                   LCD_DISP_ON_CURSOR      display on, cursor on
                   LCD_DISP_CURSOR_BLINK   display on, cursor on flashing
Returns:  none
*************************************************************************/
void lcd_init(uint8_t dispAttr)
{
 1c8:	1f 93       	push	r17
 1ca:	cf 93       	push	r28
 1cc:	df 93       	push	r29
 1ce:	18 2f       	mov	r17, r24
    }
    else if ( ( &LCD_DATA0_PORT == &LCD_DATA1_PORT) && ( &LCD_DATA1_PORT == &LCD_DATA2_PORT ) && ( &LCD_DATA2_PORT == &LCD_DATA3_PORT )
           && (LCD_DATA0_PIN == 0 ) && (LCD_DATA1_PIN == 1) && (LCD_DATA2_PIN == 2) && (LCD_DATA3_PIN == 3) )
    {
        /* configure all port bits as output (all LCD data lines on same port, but control lines on different ports) */
        DDR(LCD_DATA0_PORT) |= 0x0F;
 1d0:	81 b3       	in	r24, 0x11	; 17
 1d2:	8f 60       	ori	r24, 0x0F	; 15
 1d4:	81 bb       	out	0x11, r24	; 17
        DDR(LCD_RS_PORT)    |= _BV(LCD_RS_PIN);
 1d6:	8a b3       	in	r24, 0x1a	; 26
 1d8:	80 68       	ori	r24, 0x80	; 128
 1da:	8a bb       	out	0x1a, r24	; 26
        DDR(LCD_RW_PORT)    |= _BV(LCD_RW_PIN);
 1dc:	81 b3       	in	r24, 0x11	; 17
 1de:	80 64       	ori	r24, 0x40	; 64
 1e0:	81 bb       	out	0x11, r24	; 17
        DDR(LCD_E_PORT)     |= _BV(LCD_E_PIN);
 1e2:	81 b3       	in	r24, 0x11	; 17
 1e4:	80 68       	ori	r24, 0x80	; 128
 1e6:	81 bb       	out	0x11, r24	; 17
static inline void _delayFourCycles(unsigned int __count)
{
    if ( __count == 0 )    
        __asm__ __volatile__( "rjmp 1f\n 1:" );    // 2 cycles
    else
        __asm__ __volatile__ (
 1e8:	80 e3       	ldi	r24, 0x30	; 48
 1ea:	93 e7       	ldi	r25, 0x73	; 115
 1ec:	01 97       	sbiw	r24, 0x01	; 1
 1ee:	f1 f7       	brne	.-4      	; 0x1ec <lcd_init+0x24>
        DDR(LCD_DATA3_PORT) |= _BV(LCD_DATA3_PIN);
    }
    delay(16000);        /* wait 16ms or more after power-on       */
    
    /* initial write to lcd is 8bit */
    LCD_DATA1_PORT |= _BV(LCD_DATA1_PIN);  // _BV(LCD_FUNCTION)>>4;
 1f0:	82 b3       	in	r24, 0x12	; 18
 1f2:	82 60       	ori	r24, 0x02	; 2
 1f4:	82 bb       	out	0x12, r24	; 18
    LCD_DATA0_PORT |= _BV(LCD_DATA0_PIN);  // _BV(LCD_FUNCTION_8BIT)>>4;
 1f6:	82 b3       	in	r24, 0x12	; 18
 1f8:	81 60       	ori	r24, 0x01	; 1
 1fa:	82 bb       	out	0x12, r24	; 18
    lcd_e_toggle();
 1fc:	0e 94 49 00 	call	0x92	; 0x92 <toggle_e>
static inline void _delayFourCycles(unsigned int __count)
{
    if ( __count == 0 )    
        __asm__ __volatile__( "rjmp 1f\n 1:" );    // 2 cycles
    else
        __asm__ __volatile__ (
 200:	80 ef       	ldi	r24, 0xF0	; 240
 202:	93 e2       	ldi	r25, 0x23	; 35
 204:	01 97       	sbiw	r24, 0x01	; 1
 206:	f1 f7       	brne	.-4      	; 0x204 <__EEPROM_REGION_LENGTH__+0x4>
    LCD_DATA0_PORT |= _BV(LCD_DATA0_PIN);  // _BV(LCD_FUNCTION_8BIT)>>4;
    lcd_e_toggle();
    delay(4992);         /* delay, busy flag can't be checked here */
   
    /* repeat last command */ 
    lcd_e_toggle();      
 208:	0e 94 49 00 	call	0x92	; 0x92 <toggle_e>
static inline void _delayFourCycles(unsigned int __count)
{
    if ( __count == 0 )    
        __asm__ __volatile__( "rjmp 1f\n 1:" );    // 2 cycles
    else
        __asm__ __volatile__ (
 20c:	c5 e7       	ldi	r28, 0x75	; 117
 20e:	d0 e0       	ldi	r29, 0x00	; 0
 210:	ce 01       	movw	r24, r28
 212:	01 97       	sbiw	r24, 0x01	; 1
 214:	f1 f7       	brne	.-4      	; 0x212 <__EEPROM_REGION_LENGTH__+0x12>
    /* repeat last command */ 
    lcd_e_toggle();      
    delay(64);           /* delay, busy flag can't be checked here */
    
    /* repeat last command a third time */
    lcd_e_toggle();      
 216:	0e 94 49 00 	call	0x92	; 0x92 <toggle_e>
static inline void _delayFourCycles(unsigned int __count)
{
    if ( __count == 0 )    
        __asm__ __volatile__( "rjmp 1f\n 1:" );    // 2 cycles
    else
        __asm__ __volatile__ (
 21a:	ce 01       	movw	r24, r28
 21c:	01 97       	sbiw	r24, 0x01	; 1
 21e:	f1 f7       	brne	.-4      	; 0x21c <__EEPROM_REGION_LENGTH__+0x1c>
    /* repeat last command a third time */
    lcd_e_toggle();      
    delay(64);           /* delay, busy flag can't be checked here */

    /* now configure for 4bit mode */
    LCD_DATA0_PORT &= ~_BV(LCD_DATA0_PIN);   // LCD_FUNCTION_4BIT_1LINE>>4
 220:	82 b3       	in	r24, 0x12	; 18
 222:	8e 7f       	andi	r24, 0xFE	; 254
 224:	82 bb       	out	0x12, r24	; 18
    lcd_e_toggle();
 226:	0e 94 49 00 	call	0x92	; 0x92 <toggle_e>
static inline void _delayFourCycles(unsigned int __count)
{
    if ( __count == 0 )    
        __asm__ __volatile__( "rjmp 1f\n 1:" );    // 2 cycles
    else
        __asm__ __volatile__ (
 22a:	21 97       	sbiw	r28, 0x01	; 1
 22c:	f1 f7       	brne	.-4      	; 0x22a <__EEPROM_REGION_LENGTH__+0x2a>
    /* Display with KS0073 controller requires special commands for enabling 4 line mode */
	lcd_command(KS0073_EXTENDED_FUNCTION_REGISTER_ON);
	lcd_command(KS0073_4LINES_MODE);
	lcd_command(KS0073_EXTENDED_FUNCTION_REGISTER_OFF);
#else
    lcd_command(LCD_FUNCTION_DEFAULT);      /* function set: display lines  */
 22e:	88 e2       	ldi	r24, 0x28	; 40
 230:	0e 94 a8 00 	call	0x150	; 0x150 <lcd_command>
#endif
    lcd_command(LCD_DISP_OFF);              /* display off                  */
 234:	88 e0       	ldi	r24, 0x08	; 8
 236:	0e 94 a8 00 	call	0x150	; 0x150 <lcd_command>
    lcd_clrscr();                           /* display clear                */ 
 23a:	0e 94 bc 00 	call	0x178	; 0x178 <lcd_clrscr>
    lcd_command(LCD_MODE_DEFAULT);          /* set entry mode               */
 23e:	86 e0       	ldi	r24, 0x06	; 6
 240:	0e 94 a8 00 	call	0x150	; 0x150 <lcd_command>
    lcd_command(dispAttr);                  /* display/cursor control       */
 244:	81 2f       	mov	r24, r17
 246:	0e 94 a8 00 	call	0x150	; 0x150 <lcd_command>

}/* lcd_init */
 24a:	df 91       	pop	r29
 24c:	cf 91       	pop	r28
 24e:	1f 91       	pop	r17
 250:	08 95       	ret

00000252 <keyfind>:
unsigned char column, row;


char keyfind(){
	while(1){
		KEY_DDR = 0xF0;          
 252:	80 ef       	ldi	r24, 0xF0	; 240
 254:	87 bb       	out	0x17, r24	; 23
		KEY_PRT = 0xFF;
 256:	8f ef       	ldi	r24, 0xFF	; 255
 258:	88 bb       	out	0x18, r24	; 24

		do{
			KEY_PRT &= 0x0F;     
 25a:	88 b3       	in	r24, 0x18	; 24
 25c:	8f 70       	andi	r24, 0x0F	; 15
 25e:	88 bb       	out	0x18, r24	; 24
			asm("NOP");
 260:	00 00       	nop
			column = (KEY_PIN & 0x0F); 
 262:	86 b3       	in	r24, 0x16	; 22
 264:	8f 70       	andi	r24, 0x0F	; 15
 266:	80 93 ee 00 	sts	0x00EE, r24	; 0x8000ee <column>
		}while(column != 0x0F);
 26a:	8f 30       	cpi	r24, 0x0F	; 15
 26c:	b1 f7       	brne	.-20     	; 0x25a <keyfind+0x8>
	#else
		//round up by default
		__ticks_dc = (uint32_t)(ceil(fabs(__tmp)));
	#endif

	__builtin_avr_delay_cycles(__ticks_dc);
 26e:	8f ef       	ldi	r24, 0xFF	; 255
 270:	9f e8       	ldi	r25, 0x8F	; 143
 272:	01 97       	sbiw	r24, 0x01	; 1
 274:	f1 f7       	brne	.-4      	; 0x272 <keyfind+0x20>
 276:	00 c0       	rjmp	.+0      	; 0x278 <keyfind+0x26>
 278:	00 00       	nop
		
		do{
			do{
				_delay_ms(20);             
				column = (KEY_PIN & 0x0F); 
 27a:	86 b3       	in	r24, 0x16	; 22
 27c:	8f 70       	andi	r24, 0x0F	; 15
 27e:	80 93 ee 00 	sts	0x00EE, r24	; 0x8000ee <column>
			}while(column == 0x0F);       
 282:	8f 30       	cpi	r24, 0x0F	; 15
 284:	a1 f3       	breq	.-24     	; 0x26e <keyfind+0x1c>
 286:	96 e6       	ldi	r25, 0x66	; 102
 288:	26 ee       	ldi	r18, 0xE6	; 230
 28a:	80 e0       	ldi	r24, 0x00	; 0
 28c:	91 50       	subi	r25, 0x01	; 1
 28e:	20 40       	sbci	r18, 0x00	; 0
 290:	80 40       	sbci	r24, 0x00	; 0
 292:	e1 f7       	brne	.-8      	; 0x28c <keyfind+0x3a>
				
			_delay_ms (40);	            
			column = (KEY_PIN & 0x0F);
 294:	86 b3       	in	r24, 0x16	; 22
 296:	8f 70       	andi	r24, 0x0F	; 15
 298:	80 93 ee 00 	sts	0x00EE, r24	; 0x8000ee <column>
		}while(column == 0x0F);
 29c:	8f 30       	cpi	r24, 0x0F	; 15
 29e:	39 f3       	breq	.-50     	; 0x26e <keyfind+0x1c>

		KEY_PRT = 0xEF;           
 2a0:	8f ee       	ldi	r24, 0xEF	; 239
 2a2:	88 bb       	out	0x18, r24	; 24
		asm("NOP");
 2a4:	00 00       	nop
		column = (KEY_PIN & 0x0F);
 2a6:	86 b3       	in	r24, 0x16	; 22
 2a8:	8f 70       	andi	r24, 0x0F	; 15
 2aa:	80 93 ee 00 	sts	0x00EE, r24	; 0x8000ee <column>
			
		if(column != 0x0F){
 2ae:	8f 30       	cpi	r24, 0x0F	; 15
 2b0:	19 f0       	breq	.+6      	; 0x2b8 <keyfind+0x66>
			row = FIRST_ROW;
 2b2:	10 92 ef 00 	sts	0x00EF, r1	; 0x8000ef <row>
			break;
 2b6:	27 c0       	rjmp	.+78     	; 0x306 <keyfind+0xb4>
		}

		KEY_PRT = 0xDF;
 2b8:	8f ed       	ldi	r24, 0xDF	; 223
 2ba:	88 bb       	out	0x18, r24	; 24
		asm("NOP");
 2bc:	00 00       	nop
		column = (KEY_PIN & 0x0F);
 2be:	86 b3       	in	r24, 0x16	; 22
 2c0:	8f 70       	andi	r24, 0x0F	; 15
 2c2:	80 93 ee 00 	sts	0x00EE, r24	; 0x8000ee <column>
		
		if(column != 0x0F){
 2c6:	8f 30       	cpi	r24, 0x0F	; 15
 2c8:	21 f0       	breq	.+8      	; 0x2d2 <keyfind+0x80>
			row = SECOND_ROW;
 2ca:	81 e0       	ldi	r24, 0x01	; 1
 2cc:	80 93 ef 00 	sts	0x00EF, r24	; 0x8000ef <row>
			break;
 2d0:	1a c0       	rjmp	.+52     	; 0x306 <keyfind+0xb4>
		}
			
		KEY_PRT = 0xBF;
 2d2:	8f eb       	ldi	r24, 0xBF	; 191
 2d4:	88 bb       	out	0x18, r24	; 24
		asm("NOP");
 2d6:	00 00       	nop
		column = (KEY_PIN & 0x0F);
 2d8:	86 b3       	in	r24, 0x16	; 22
 2da:	8f 70       	andi	r24, 0x0F	; 15
 2dc:	80 93 ee 00 	sts	0x00EE, r24	; 0x8000ee <column>
		
		if(column != 0x0F){
 2e0:	8f 30       	cpi	r24, 0x0F	; 15
 2e2:	21 f0       	breq	.+8      	; 0x2ec <keyfind+0x9a>
			row = THIRD_ROW;
 2e4:	82 e0       	ldi	r24, 0x02	; 2
 2e6:	80 93 ef 00 	sts	0x00EF, r24	; 0x8000ef <row>
			break;
 2ea:	0d c0       	rjmp	.+26     	; 0x306 <keyfind+0xb4>
		}

		KEY_PRT = 0x7F;		
 2ec:	8f e7       	ldi	r24, 0x7F	; 127
 2ee:	88 bb       	out	0x18, r24	; 24
		asm("NOP");
 2f0:	00 00       	nop
		column = (KEY_PIN & 0x0F);
 2f2:	86 b3       	in	r24, 0x16	; 22
 2f4:	8f 70       	andi	r24, 0x0F	; 15
 2f6:	80 93 ee 00 	sts	0x00EE, r24	; 0x8000ee <column>
			
		if(column != 0x0F){
 2fa:	8f 30       	cpi	r24, 0x0F	; 15
 2fc:	09 f4       	brne	.+2      	; 0x300 <keyfind+0xae>
 2fe:	a9 cf       	rjmp	.-174    	; 0x252 <keyfind>
			row = FOURTH_ROW;
 300:	83 e0       	ldi	r24, 0x03	; 3
 302:	80 93 ef 00 	sts	0x00EF, r24	; 0x8000ef <row>
			break;
		}
	}

	if(column == 0x0E){
 306:	80 91 ee 00 	lds	r24, 0x00EE	; 0x8000ee <column>
 30a:	8e 30       	cpi	r24, 0x0E	; 14
 30c:	59 f4       	brne	.+22     	; 0x324 <keyfind+0xd2>
		return(keypad[row][0]);
 30e:	e0 91 ef 00 	lds	r30, 0x00EF	; 0x8000ef <row>
 312:	f0 e0       	ldi	r31, 0x00	; 0
 314:	ee 0f       	add	r30, r30
 316:	ff 1f       	adc	r31, r31
 318:	ee 0f       	add	r30, r30
 31a:	ff 1f       	adc	r31, r31
 31c:	e5 59       	subi	r30, 0x95	; 149
 31e:	ff 4f       	sbci	r31, 0xFF	; 255
 320:	80 81       	ld	r24, Z
 322:	08 95       	ret
	}else if(column == 0x0D){
 324:	8d 30       	cpi	r24, 0x0D	; 13
 326:	59 f4       	brne	.+22     	; 0x33e <keyfind+0xec>
		return(keypad[row][1]);
 328:	e0 91 ef 00 	lds	r30, 0x00EF	; 0x8000ef <row>
 32c:	f0 e0       	ldi	r31, 0x00	; 0
 32e:	ee 0f       	add	r30, r30
 330:	ff 1f       	adc	r31, r31
 332:	ee 0f       	add	r30, r30
 334:	ff 1f       	adc	r31, r31
 336:	e5 59       	subi	r30, 0x95	; 149
 338:	ff 4f       	sbci	r31, 0xFF	; 255
 33a:	81 81       	ldd	r24, Z+1	; 0x01
 33c:	08 95       	ret
	}else if(column == 0x0B) {
 33e:	8b 30       	cpi	r24, 0x0B	; 11
 340:	59 f4       	brne	.+22     	; 0x358 <keyfind+0x106>
		return(keypad[row][2]);
 342:	e0 91 ef 00 	lds	r30, 0x00EF	; 0x8000ef <row>
 346:	f0 e0       	ldi	r31, 0x00	; 0
 348:	ee 0f       	add	r30, r30
 34a:	ff 1f       	adc	r31, r31
 34c:	ee 0f       	add	r30, r30
 34e:	ff 1f       	adc	r31, r31
 350:	e5 59       	subi	r30, 0x95	; 149
 352:	ff 4f       	sbci	r31, 0xFF	; 255
 354:	82 81       	ldd	r24, Z+2	; 0x02
 356:	08 95       	ret
	}else{
		return(keypad[row][3]);
 358:	e0 91 ef 00 	lds	r30, 0x00EF	; 0x8000ef <row>
 35c:	f0 e0       	ldi	r31, 0x00	; 0
 35e:	ee 0f       	add	r30, r30
 360:	ff 1f       	adc	r31, r31
 362:	ee 0f       	add	r30, r30
 364:	ff 1f       	adc	r31, r31
 366:	e5 59       	subi	r30, 0x95	; 149
 368:	ff 4f       	sbci	r31, 0xFF	; 255
 36a:	83 81       	ldd	r24, Z+3	; 0x03
	}
}
 36c:	08 95       	ret

0000036e <buzzerDetection>:


void buzzerDetection(){
	if(flagWrongPass == 0){
 36e:	80 91 d2 00 	lds	r24, 0x00D2	; 0x8000d2 <__data_end>
 372:	90 91 d3 00 	lds	r25, 0x00D3	; 0x8000d3 <__data_end+0x1>
 376:	00 97       	sbiw	r24, 0x00	; 0
 378:	b1 f0       	breq	.+44     	; 0x3a6 <buzzerDetection+0x38>
 37a:	1d c0       	rjmp	.+58     	; 0x3b6 <buzzerDetection+0x48>
		while(buzzerCounter > 0){
			PORTC ^= _BV(7);
 37c:	85 b3       	in	r24, 0x15	; 21
 37e:	80 58       	subi	r24, 0x80	; 128
 380:	85 bb       	out	0x15, r24	; 21
 382:	2f ef       	ldi	r18, 0xFF	; 255
 384:	8f ec       	ldi	r24, 0xCF	; 207
 386:	92 e0       	ldi	r25, 0x02	; 2
 388:	21 50       	subi	r18, 0x01	; 1
 38a:	80 40       	sbci	r24, 0x00	; 0
 38c:	90 40       	sbci	r25, 0x00	; 0
 38e:	e1 f7       	brne	.-8      	; 0x388 <buzzerDetection+0x1a>
 390:	00 c0       	rjmp	.+0      	; 0x392 <buzzerDetection+0x24>
 392:	00 00       	nop
			_delay_ms(125);
			buzzerCounter--;
 394:	80 91 ec 00 	lds	r24, 0x00EC	; 0x8000ec <buzzerCounter>
 398:	90 91 ed 00 	lds	r25, 0x00ED	; 0x8000ed <buzzerCounter+0x1>
 39c:	01 97       	sbiw	r24, 0x01	; 1
 39e:	90 93 ed 00 	sts	0x00ED, r25	; 0x8000ed <buzzerCounter+0x1>
 3a2:	80 93 ec 00 	sts	0x00EC, r24	; 0x8000ec <buzzerCounter>
}


void buzzerDetection(){
	if(flagWrongPass == 0){
		while(buzzerCounter > 0){
 3a6:	80 91 ec 00 	lds	r24, 0x00EC	; 0x8000ec <buzzerCounter>
 3aa:	90 91 ed 00 	lds	r25, 0x00ED	; 0x8000ed <buzzerCounter+0x1>
 3ae:	18 16       	cp	r1, r24
 3b0:	19 06       	cpc	r1, r25
 3b2:	24 f3       	brlt	.-56     	; 0x37c <buzzerDetection+0xe>
 3b4:	08 95       	ret
			PORTC ^= _BV(7);
			_delay_ms(125);
			buzzerCounter--;
		}
	} else if(flagWrongPass == 1){
 3b6:	01 97       	sbiw	r24, 0x01	; 1
 3b8:	a9 f5       	brne	.+106    	; 0x424 <__DATA_REGION_LENGTH__+0x24>
		while(1){
			PORTC ^= _BV(7) | _BV(0) | _BV(1) | _BV(6);
 3ba:	95 b3       	in	r25, 0x15	; 21
 3bc:	83 ec       	ldi	r24, 0xC3	; 195
 3be:	89 27       	eor	r24, r25
 3c0:	85 bb       	out	0x15, r24	; 21
			PORTA ^= _BV(3) | _BV(4) | _BV(5);
 3c2:	9b b3       	in	r25, 0x1b	; 27
 3c4:	88 e3       	ldi	r24, 0x38	; 56
 3c6:	89 27       	eor	r24, r25
 3c8:	8b bb       	out	0x1b, r24	; 27
 3ca:	2f ef       	ldi	r18, 0xFF	; 255
 3cc:	8f ec       	ldi	r24, 0xCF	; 207
 3ce:	92 e0       	ldi	r25, 0x02	; 2
 3d0:	21 50       	subi	r18, 0x01	; 1
 3d2:	80 40       	sbci	r24, 0x00	; 0
 3d4:	90 40       	sbci	r25, 0x00	; 0
 3d6:	e1 f7       	brne	.-8      	; 0x3d0 <buzzerDetection+0x62>
 3d8:	00 c0       	rjmp	.+0      	; 0x3da <buzzerDetection+0x6c>
 3da:	00 00       	nop
			
			_delay_ms(125);
			
			if(!(PINB & _BV(PB0))){
 3dc:	b0 99       	sbic	0x16, 0	; 22
 3de:	ed cf       	rjmp	.-38     	; 0x3ba <buzzerDetection+0x4c>
				if((PINB & _BV(PB0)) == 0){
 3e0:	b0 99       	sbic	0x16, 0	; 22
 3e2:	eb cf       	rjmp	.-42     	; 0x3ba <buzzerDetection+0x4c>
					flagWrongPass = 0;
 3e4:	10 92 d3 00 	sts	0x00D3, r1	; 0x8000d3 <__data_end+0x1>
 3e8:	10 92 d2 00 	sts	0x00D2, r1	; 0x8000d2 <__data_end>
					wrongPassCounter = WRONG_PASS;
 3ec:	83 e0       	ldi	r24, 0x03	; 3
 3ee:	90 e0       	ldi	r25, 0x00	; 0
 3f0:	90 93 65 00 	sts	0x0065, r25	; 0x800065 <wrongPassCounter+0x1>
 3f4:	80 93 64 00 	sts	0x0064, r24	; 0x800064 <wrongPassCounter>
					PORTC |= _BV(7);
 3f8:	85 b3       	in	r24, 0x15	; 21
 3fa:	80 68       	ori	r24, 0x80	; 128
 3fc:	85 bb       	out	0x15, r24	; 21
					
					if(doorOpen == 0){
 3fe:	80 91 ea 00 	lds	r24, 0x00EA	; 0x8000ea <doorOpen>
 402:	90 91 eb 00 	lds	r25, 0x00EB	; 0x8000eb <doorOpen+0x1>
 406:	89 2b       	or	r24, r25
 408:	39 f4       	brne	.+14     	; 0x418 <__DATA_REGION_LENGTH__+0x18>
						PORTC |= _BV(0) | _BV(1) | _BV(6); // turn on red LED diodes
 40a:	85 b3       	in	r24, 0x15	; 21
 40c:	83 64       	ori	r24, 0x43	; 67
 40e:	85 bb       	out	0x15, r24	; 21
						PORTA &= ~(_BV(3) | _BV(4) | _BV(5)); // turn off green LED diodes
 410:	8b b3       	in	r24, 0x1b	; 27
 412:	87 7c       	andi	r24, 0xC7	; 199
 414:	8b bb       	out	0x1b, r24	; 27
 416:	08 95       	ret
					} else {
						PORTC &= ~(_BV(0) | _BV(1) | _BV(6)); // turn off red LED diodes
 418:	85 b3       	in	r24, 0x15	; 21
 41a:	8c 7b       	andi	r24, 0xBC	; 188
 41c:	85 bb       	out	0x15, r24	; 21
						PORTA |= _BV(3) | _BV(4) | _BV(5); // turn on green LED diodes
 41e:	8b b3       	in	r24, 0x1b	; 27
 420:	88 63       	ori	r24, 0x38	; 56
 422:	8b bb       	out	0x1b, r24	; 27
 424:	08 95       	ret

00000426 <turnServo>:
	}
}


void turnServo() {
	if(doorOpen == 1){
 426:	80 91 ea 00 	lds	r24, 0x00EA	; 0x8000ea <doorOpen>
 42a:	90 91 eb 00 	lds	r25, 0x00EB	; 0x8000eb <doorOpen+0x1>
 42e:	81 30       	cpi	r24, 0x01	; 1
 430:	91 05       	cpc	r25, r1
 432:	49 f4       	brne	.+18     	; 0x446 <turnServo+0x20>
		PORTD ^= _BV(5);
 434:	92 b3       	in	r25, 0x12	; 18
 436:	80 e2       	ldi	r24, 0x20	; 32
 438:	89 27       	eor	r24, r25
 43a:	82 bb       	out	0x12, r24	; 18
		OCR1A = 276; // position +90°
 43c:	84 e1       	ldi	r24, 0x14	; 20
 43e:	91 e0       	ldi	r25, 0x01	; 1
 440:	9b bd       	out	0x2b, r25	; 43
 442:	8a bd       	out	0x2a, r24	; 42
 444:	08 95       	ret
	} else if(doorOpen == 0){
 446:	89 2b       	or	r24, r25
 448:	41 f4       	brne	.+16     	; 0x45a <turnServo+0x34>
		PORTD ^= _BV(5);
 44a:	92 b3       	in	r25, 0x12	; 18
 44c:	80 e2       	ldi	r24, 0x20	; 32
 44e:	89 27       	eor	r24, r25
 450:	82 bb       	out	0x12, r24	; 18
		OCR1A = 59; // position -90°
 452:	8b e3       	ldi	r24, 0x3B	; 59
 454:	90 e0       	ldi	r25, 0x00	; 0
 456:	9b bd       	out	0x2b, r25	; 43
 458:	8a bd       	out	0x2a, r24	; 42
 45a:	08 95       	ret

0000045c <writeLCD>:
	}
}


void writeLCD(uint16_t adc) {
 45c:	cf 93       	push	r28
 45e:	df 93       	push	r29
 460:	cd b7       	in	r28, 0x3d	; 61
 462:	de b7       	in	r29, 0x3e	; 62
 464:	60 97       	sbiw	r28, 0x10	; 16
 466:	0f b6       	in	r0, 0x3f	; 63
 468:	f8 94       	cli
 46a:	de bf       	out	0x3e, r29	; 62
 46c:	0f be       	out	0x3f, r0	; 63
 46e:	cd bf       	out	0x3d, r28	; 61
	char adcStr[16];
	itoa(round(adc), adcStr, 10);
 470:	bc 01       	movw	r22, r24
 472:	80 e0       	ldi	r24, 0x00	; 0
 474:	90 e0       	ldi	r25, 0x00	; 0
 476:	0e 94 89 04 	call	0x912	; 0x912 <__floatunsisf>
 47a:	0e 94 ef 04 	call	0x9de	; 0x9de <round>
 47e:	0e 94 53 04 	call	0x8a6	; 0x8a6 <__fixsfsi>
 482:	dc 01       	movw	r26, r24
 484:	cb 01       	movw	r24, r22
    } else if (__radix < 2 || __radix > 36) {
	*__s = 0;
	return __s;
    } else {
	extern char *__itoa_ncheck (int, char *, unsigned char);
	return __itoa_ncheck (__val, __s, __radix);
 486:	4a e0       	ldi	r20, 0x0A	; 10
 488:	be 01       	movw	r22, r28
 48a:	6f 5f       	subi	r22, 0xFF	; 255
 48c:	7f 4f       	sbci	r23, 0xFF	; 255
 48e:	0e 94 59 05 	call	0xab2	; 0xab2 <__itoa_ncheck>
	
	if(flagPot == 0){
 492:	80 91 e8 00 	lds	r24, 0x00E8	; 0x8000e8 <flagPot>
 496:	90 91 e9 00 	lds	r25, 0x00E9	; 0x8000e9 <flagPot+0x1>
 49a:	00 97       	sbiw	r24, 0x00	; 0
 49c:	59 f4       	brne	.+22     	; 0x4b4 <__stack+0x55>
		lcd_clrscr();
 49e:	0e 94 bc 00 	call	0x178	; 0x178 <lcd_clrscr>
		
		lcd_gotoxy(6,FIRST_ROW);
 4a2:	60 e0       	ldi	r22, 0x00	; 0
 4a4:	86 e0       	ldi	r24, 0x06	; 6
 4a6:	0e 94 b2 00 	call	0x164	; 0x164 <lcd_gotoxy>
		lcd_puts(adcStr);
 4aa:	ce 01       	movw	r24, r28
 4ac:	01 96       	adiw	r24, 0x01	; 1
 4ae:	0e 94 d5 00 	call	0x1aa	; 0x1aa <lcd_puts>
 4b2:	14 c0       	rjmp	.+40     	; 0x4dc <__stack+0x7d>
	} else if(flagPot == 1){
 4b4:	01 97       	sbiw	r24, 0x01	; 1
 4b6:	91 f4       	brne	.+36     	; 0x4dc <__stack+0x7d>
		lcd_clrscr();
 4b8:	0e 94 bc 00 	call	0x178	; 0x178 <lcd_clrscr>
		
		lcd_gotoxy(6,FIRST_ROW);
 4bc:	60 e0       	ldi	r22, 0x00	; 0
 4be:	86 e0       	ldi	r24, 0x06	; 6
 4c0:	0e 94 b2 00 	call	0x164	; 0x164 <lcd_gotoxy>
		lcd_puts(potChar);
 4c4:	84 ed       	ldi	r24, 0xD4	; 212
 4c6:	90 e0       	ldi	r25, 0x00	; 0
 4c8:	0e 94 d5 00 	call	0x1aa	; 0x1aa <lcd_puts>
		lcd_gotoxy(6,SECOND_ROW);
 4cc:	61 e0       	ldi	r22, 0x01	; 1
 4ce:	86 e0       	ldi	r24, 0x06	; 6
 4d0:	0e 94 b2 00 	call	0x164	; 0x164 <lcd_gotoxy>
		lcd_puts(adcStr);
 4d4:	ce 01       	movw	r24, r28
 4d6:	01 96       	adiw	r24, 0x01	; 1
 4d8:	0e 94 d5 00 	call	0x1aa	; 0x1aa <lcd_puts>
	}
	
	if(pot1 == VALUE_POT && pot2 == VALUE_POT){
 4dc:	80 91 e6 00 	lds	r24, 0x00E6	; 0x8000e6 <pot1>
 4e0:	90 91 e7 00 	lds	r25, 0x00E7	; 0x8000e7 <pot1+0x1>
 4e4:	c2 97       	sbiw	r24, 0x32	; 50
 4e6:	61 f4       	brne	.+24     	; 0x500 <__stack+0xa1>
 4e8:	80 91 e4 00 	lds	r24, 0x00E4	; 0x8000e4 <pot2>
 4ec:	90 91 e5 00 	lds	r25, 0x00E5	; 0x8000e5 <pot2+0x1>
 4f0:	c2 97       	sbiw	r24, 0x32	; 50
 4f2:	31 f4       	brne	.+12     	; 0x500 <__stack+0xa1>
		lcd_clrscr();
 4f4:	0e 94 bc 00 	call	0x178	; 0x178 <lcd_clrscr>
		lcd_puts("Otvoren sef!");
 4f8:	8b e7       	ldi	r24, 0x7B	; 123
 4fa:	90 e0       	ldi	r25, 0x00	; 0
 4fc:	0e 94 d5 00 	call	0x1aa	; 0x1aa <lcd_puts>
	}
}
 500:	60 96       	adiw	r28, 0x10	; 16
 502:	0f b6       	in	r0, 0x3f	; 63
 504:	f8 94       	cli
 506:	de bf       	out	0x3e, r29	; 62
 508:	0f be       	out	0x3f, r0	; 63
 50a:	cd bf       	out	0x3d, r28	; 61
 50c:	df 91       	pop	r29
 50e:	cf 91       	pop	r28
 510:	08 95       	ret

00000512 <readPotentiometer>:


void readPotentiometer(){
 512:	cf 93       	push	r28
 514:	df 93       	push	r29
	uint16_t adcConversion;
	
	while(1){
		
		adcConversion = ADC/10;
 516:	24 b1       	in	r18, 0x04	; 4
 518:	35 b1       	in	r19, 0x05	; 5
 51a:	ad ec       	ldi	r26, 0xCD	; 205
 51c:	bc ec       	ldi	r27, 0xCC	; 204
 51e:	0e 94 3c 05 	call	0xa78	; 0xa78 <__umulhisi3>
 522:	ec 01       	movw	r28, r24
 524:	d6 95       	lsr	r29
 526:	c7 95       	ror	r28
 528:	d6 95       	lsr	r29
 52a:	c7 95       	ror	r28
 52c:	d6 95       	lsr	r29
 52e:	c7 95       	ror	r28
			
		if((adcConversion<= ADC_PLUS && adcConversion >= ADC_MINUS) && flagPot == 0){
 530:	ce 01       	movw	r24, r28
 532:	c1 97       	sbiw	r24, 0x31	; 49
 534:	83 30       	cpi	r24, 0x03	; 3
 536:	91 05       	cpc	r25, r1
 538:	78 f5       	brcc	.+94     	; 0x598 <readPotentiometer+0x86>
 53a:	20 91 e8 00 	lds	r18, 0x00E8	; 0x8000e8 <flagPot>
 53e:	30 91 e9 00 	lds	r19, 0x00E9	; 0x8000e9 <flagPot+0x1>
 542:	23 2b       	or	r18, r19
 544:	49 f5       	brne	.+82     	; 0x598 <readPotentiometer+0x86>
			if(!(PINB & _BV(PB0))){
 546:	b0 99       	sbic	0x16, 0	; 22
 548:	49 c0       	rjmp	.+146    	; 0x5dc <readPotentiometer+0xca>
				if((PINB & _BV(PB0)) == 0){
 54a:	b0 99       	sbic	0x16, 0	; 22
 54c:	47 c0       	rjmp	.+142    	; 0x5dc <readPotentiometer+0xca>
					ADMUX |= _BV(MUX0); // switch to second potentiometer
 54e:	87 b1       	in	r24, 0x07	; 7
 550:	81 60       	ori	r24, 0x01	; 1
 552:	87 b9       	out	0x07, r24	; 7
					flagPot = 1;
 554:	81 e0       	ldi	r24, 0x01	; 1
 556:	90 e0       	ldi	r25, 0x00	; 0
 558:	90 93 e9 00 	sts	0x00E9, r25	; 0x8000e9 <flagPot+0x1>
 55c:	80 93 e8 00 	sts	0x00E8, r24	; 0x8000e8 <flagPot>
					pot1 = VALUE_POT;
 560:	82 e3       	ldi	r24, 0x32	; 50
 562:	90 e0       	ldi	r25, 0x00	; 0
 564:	90 93 e7 00 	sts	0x00E7, r25	; 0x8000e7 <pot1+0x1>
 568:	80 93 e6 00 	sts	0x00E6, r24	; 0x8000e6 <pot1>
 56c:	4a e0       	ldi	r20, 0x0A	; 10
 56e:	64 ed       	ldi	r22, 0xD4	; 212
 570:	70 e0       	ldi	r23, 0x00	; 0
 572:	0e 94 59 05 	call	0xab2	; 0xab2 <__itoa_ncheck>
					itoa(pot1, potChar, 10);
					
					PORTC ^= _BV(0);
 576:	95 b3       	in	r25, 0x15	; 21
 578:	81 e0       	ldi	r24, 0x01	; 1
 57a:	89 27       	eor	r24, r25
 57c:	85 bb       	out	0x15, r24	; 21
					PORTA ^= _BV(4);
 57e:	9b b3       	in	r25, 0x1b	; 27
 580:	80 e1       	ldi	r24, 0x10	; 16
 582:	89 27       	eor	r24, r25
 584:	8b bb       	out	0x1b, r24	; 27
					
					buzzerCounter = CONFIRM_SOUND;
 586:	82 e0       	ldi	r24, 0x02	; 2
 588:	90 e0       	ldi	r25, 0x00	; 0
 58a:	90 93 ed 00 	sts	0x00ED, r25	; 0x8000ed <buzzerCounter+0x1>
 58e:	80 93 ec 00 	sts	0x00EC, r24	; 0x8000ec <buzzerCounter>
					buzzerDetection();
 592:	0e 94 b7 01 	call	0x36e	; 0x36e <buzzerDetection>
 596:	22 c0       	rjmp	.+68     	; 0x5dc <readPotentiometer+0xca>
				}
			}
		} else if((adcConversion <= ADC_PLUS && adcConversion >= ADC_MINUS) && flagPot == 1){
 598:	03 97       	sbiw	r24, 0x03	; 3
 59a:	00 f5       	brcc	.+64     	; 0x5dc <readPotentiometer+0xca>
 59c:	80 91 e8 00 	lds	r24, 0x00E8	; 0x8000e8 <flagPot>
 5a0:	90 91 e9 00 	lds	r25, 0x00E9	; 0x8000e9 <flagPot+0x1>
 5a4:	01 97       	sbiw	r24, 0x01	; 1
 5a6:	d1 f4       	brne	.+52     	; 0x5dc <readPotentiometer+0xca>
			if(!(PINB & _BV(PB0))){
 5a8:	b0 99       	sbic	0x16, 0	; 22
 5aa:	18 c0       	rjmp	.+48     	; 0x5dc <readPotentiometer+0xca>
				if((PINB & _BV(PB0)) == 0){
 5ac:	b0 99       	sbic	0x16, 0	; 22
 5ae:	16 c0       	rjmp	.+44     	; 0x5dc <readPotentiometer+0xca>
					pot2 = VALUE_POT;
 5b0:	82 e3       	ldi	r24, 0x32	; 50
 5b2:	90 e0       	ldi	r25, 0x00	; 0
 5b4:	90 93 e5 00 	sts	0x00E5, r25	; 0x8000e5 <pot2+0x1>
 5b8:	80 93 e4 00 	sts	0x00E4, r24	; 0x8000e4 <pot2>
					
					PORTC ^= _BV(1);
 5bc:	95 b3       	in	r25, 0x15	; 21
 5be:	82 e0       	ldi	r24, 0x02	; 2
 5c0:	89 27       	eor	r24, r25
 5c2:	85 bb       	out	0x15, r24	; 21
					PORTA ^= _BV(3);
 5c4:	9b b3       	in	r25, 0x1b	; 27
 5c6:	88 e0       	ldi	r24, 0x08	; 8
 5c8:	89 27       	eor	r24, r25
 5ca:	8b bb       	out	0x1b, r24	; 27
					
					buzzerCounter = CONFIRM_SOUND;
 5cc:	82 e0       	ldi	r24, 0x02	; 2
 5ce:	90 e0       	ldi	r25, 0x00	; 0
 5d0:	90 93 ed 00 	sts	0x00ED, r25	; 0x8000ed <buzzerCounter+0x1>
 5d4:	80 93 ec 00 	sts	0x00EC, r24	; 0x8000ec <buzzerCounter>
					buzzerDetection();
 5d8:	0e 94 b7 01 	call	0x36e	; 0x36e <buzzerDetection>
				}
			}
		}
		ADCSRA |= _BV(ADSC);
 5dc:	86 b1       	in	r24, 0x06	; 6
 5de:	80 64       	ori	r24, 0x40	; 64
 5e0:	86 b9       	out	0x06, r24	; 6

		while (!(ADCSRA & _BV(ADIF)));
 5e2:	34 9b       	sbis	0x06, 4	; 6
 5e4:	fe cf       	rjmp	.-4      	; 0x5e2 <readPotentiometer+0xd0>

		writeLCD(adcConversion);
 5e6:	ce 01       	movw	r24, r28
 5e8:	0e 94 2e 02 	call	0x45c	; 0x45c <writeLCD>
 5ec:	2f ef       	ldi	r18, 0xFF	; 255
 5ee:	8f e5       	ldi	r24, 0x5F	; 95
 5f0:	93 e0       	ldi	r25, 0x03	; 3
 5f2:	21 50       	subi	r18, 0x01	; 1
 5f4:	80 40       	sbci	r24, 0x00	; 0
 5f6:	90 40       	sbci	r25, 0x00	; 0
 5f8:	e1 f7       	brne	.-8      	; 0x5f2 <readPotentiometer+0xe0>
 5fa:	00 c0       	rjmp	.+0      	; 0x5fc <readPotentiometer+0xea>
 5fc:	00 00       	nop
		
		_delay_ms(150);
		
		if(pot1 == VALUE_POT && pot2 == VALUE_POT){
 5fe:	80 91 e6 00 	lds	r24, 0x00E6	; 0x8000e6 <pot1>
 602:	90 91 e7 00 	lds	r25, 0x00E7	; 0x8000e7 <pot1+0x1>
 606:	c2 97       	sbiw	r24, 0x32	; 50
 608:	09 f0       	breq	.+2      	; 0x60c <readPotentiometer+0xfa>
 60a:	85 cf       	rjmp	.-246    	; 0x516 <readPotentiometer+0x4>
 60c:	80 91 e4 00 	lds	r24, 0x00E4	; 0x8000e4 <pot2>
 610:	90 91 e5 00 	lds	r25, 0x00E5	; 0x8000e5 <pot2+0x1>
 614:	c2 97       	sbiw	r24, 0x32	; 50
 616:	09 f0       	breq	.+2      	; 0x61a <readPotentiometer+0x108>
 618:	7e cf       	rjmp	.-260    	; 0x516 <readPotentiometer+0x4>
			doorOpen = 1;
 61a:	81 e0       	ldi	r24, 0x01	; 1
 61c:	90 e0       	ldi	r25, 0x00	; 0
 61e:	90 93 eb 00 	sts	0x00EB, r25	; 0x8000eb <doorOpen+0x1>
 622:	80 93 ea 00 	sts	0x00EA, r24	; 0x8000ea <doorOpen>
			ADMUX &= ~_BV(MUX0); // switch to first potentiometer
 626:	87 b1       	in	r24, 0x07	; 7
 628:	8e 7f       	andi	r24, 0xFE	; 254
 62a:	87 b9       	out	0x07, r24	; 7
			turnServo();
 62c:	0e 94 13 02 	call	0x426	; 0x426 <turnServo>
			break;
		}
	}
}
 630:	df 91       	pop	r29
 632:	cf 91       	pop	r28
 634:	08 95       	ret

00000636 <checkPassword>:
	
	
void checkPassword(){
	if((!strncmp(output, passwordLock, PASS_LENGHT)) && doorOpen == 1){
 636:	60 91 60 00 	lds	r22, 0x0060	; 0x800060 <__DATA_REGION_ORIGIN__>
 63a:	70 91 61 00 	lds	r23, 0x0061	; 0x800061 <__DATA_REGION_ORIGIN__+0x1>
 63e:	44 e0       	ldi	r20, 0x04	; 4
 640:	50 e0       	ldi	r21, 0x00	; 0
 642:	86 e6       	ldi	r24, 0x66	; 102
 644:	90 e0       	ldi	r25, 0x00	; 0
 646:	0e 94 4b 05 	call	0xa96	; 0xa96 <strncmp>
 64a:	89 2b       	or	r24, r25
 64c:	b1 f5       	brne	.+108    	; 0x6ba <checkPassword+0x84>
 64e:	80 91 ea 00 	lds	r24, 0x00EA	; 0x8000ea <doorOpen>
 652:	90 91 eb 00 	lds	r25, 0x00EB	; 0x8000eb <doorOpen+0x1>
 656:	01 97       	sbiw	r24, 0x01	; 1
 658:	81 f5       	brne	.+96     	; 0x6ba <checkPassword+0x84>
		doorOpen = 0;
 65a:	10 92 eb 00 	sts	0x00EB, r1	; 0x8000eb <doorOpen+0x1>
 65e:	10 92 ea 00 	sts	0x00EA, r1	; 0x8000ea <doorOpen>
		turnServo();
 662:	0e 94 13 02 	call	0x426	; 0x426 <turnServo>
		buzzerCounter = CONFIRM_SOUND;
 666:	82 e0       	ldi	r24, 0x02	; 2
 668:	90 e0       	ldi	r25, 0x00	; 0
 66a:	90 93 ed 00 	sts	0x00ED, r25	; 0x8000ed <buzzerCounter+0x1>
 66e:	80 93 ec 00 	sts	0x00EC, r24	; 0x8000ec <buzzerCounter>
		buzzerDetection();
 672:	0e 94 b7 01 	call	0x36e	; 0x36e <buzzerDetection>
		
		PORTC ^= _BV(0) | _BV(1) | _BV(6);
 676:	95 b3       	in	r25, 0x15	; 21
 678:	83 e4       	ldi	r24, 0x43	; 67
 67a:	89 27       	eor	r24, r25
 67c:	85 bb       	out	0x15, r24	; 21
		PORTA ^= _BV(3) | _BV(4) | _BV(5);
 67e:	9b b3       	in	r25, 0x1b	; 27
 680:	88 e3       	ldi	r24, 0x38	; 56
 682:	89 27       	eor	r24, r25
 684:	8b bb       	out	0x1b, r24	; 27
		
		pot1 = POT_ZERO;
 686:	10 92 e7 00 	sts	0x00E7, r1	; 0x8000e7 <pot1+0x1>
 68a:	10 92 e6 00 	sts	0x00E6, r1	; 0x8000e6 <pot1>
		pot2 = POT_ZERO;
 68e:	10 92 e5 00 	sts	0x00E5, r1	; 0x8000e5 <pot2+0x1>
 692:	10 92 e4 00 	sts	0x00E4, r1	; 0x8000e4 <pot2>
		memset(potChar, 0, sizeof(potChar));
 696:	80 e1       	ldi	r24, 0x10	; 16
 698:	e4 ed       	ldi	r30, 0xD4	; 212
 69a:	f0 e0       	ldi	r31, 0x00	; 0
 69c:	df 01       	movw	r26, r30
 69e:	1d 92       	st	X+, r1
 6a0:	8a 95       	dec	r24
 6a2:	e9 f7       	brne	.-6      	; 0x69e <checkPassword+0x68>
		flagPot = 0;
 6a4:	10 92 e9 00 	sts	0x00E9, r1	; 0x8000e9 <flagPot+0x1>
 6a8:	10 92 e8 00 	sts	0x00E8, r1	; 0x8000e8 <flagPot>
		
		lcd_clrscr();
 6ac:	0e 94 bc 00 	call	0x178	; 0x178 <lcd_clrscr>
		lcd_puts("Sef zatvoren!");
 6b0:	88 e8       	ldi	r24, 0x88	; 136
 6b2:	90 e0       	ldi	r25, 0x00	; 0
 6b4:	0e 94 d5 00 	call	0x1aa	; 0x1aa <lcd_puts>
 6b8:	4f c0       	rjmp	.+158    	; 0x758 <checkPassword+0x122>
		
	} else if(strncmp(output, passwordCheck, PASS_LENGHT)){
 6ba:	60 91 62 00 	lds	r22, 0x0062	; 0x800062 <passwordCheck>
 6be:	70 91 63 00 	lds	r23, 0x0063	; 0x800063 <passwordCheck+0x1>
 6c2:	44 e0       	ldi	r20, 0x04	; 4
 6c4:	50 e0       	ldi	r21, 0x00	; 0
 6c6:	86 e6       	ldi	r24, 0x66	; 102
 6c8:	90 e0       	ldi	r25, 0x00	; 0
 6ca:	0e 94 4b 05 	call	0xa96	; 0xa96 <strncmp>
 6ce:	89 2b       	or	r24, r25
 6d0:	11 f1       	breq	.+68     	; 0x716 <checkPassword+0xe0>
		lcd_clrscr();
 6d2:	0e 94 bc 00 	call	0x178	; 0x178 <lcd_clrscr>
		lcd_puts("Netocna lozinka!");
 6d6:	86 e9       	ldi	r24, 0x96	; 150
 6d8:	90 e0       	ldi	r25, 0x00	; 0
 6da:	0e 94 d5 00 	call	0x1aa	; 0x1aa <lcd_puts>
		
		buzzerCounter = ALARM_SOUND;
 6de:	86 e0       	ldi	r24, 0x06	; 6
 6e0:	90 e0       	ldi	r25, 0x00	; 0
 6e2:	90 93 ed 00 	sts	0x00ED, r25	; 0x8000ed <buzzerCounter+0x1>
 6e6:	80 93 ec 00 	sts	0x00EC, r24	; 0x8000ec <buzzerCounter>
		buzzerDetection();
 6ea:	0e 94 b7 01 	call	0x36e	; 0x36e <buzzerDetection>
		wrongPassCounter--;
 6ee:	80 91 64 00 	lds	r24, 0x0064	; 0x800064 <wrongPassCounter>
 6f2:	90 91 65 00 	lds	r25, 0x0065	; 0x800065 <wrongPassCounter+0x1>
 6f6:	01 97       	sbiw	r24, 0x01	; 1
 6f8:	90 93 65 00 	sts	0x0065, r25	; 0x800065 <wrongPassCounter+0x1>
 6fc:	80 93 64 00 	sts	0x0064, r24	; 0x800064 <wrongPassCounter>
		
		if(wrongPassCounter == 0){
 700:	89 2b       	or	r24, r25
 702:	51 f5       	brne	.+84     	; 0x758 <checkPassword+0x122>
			flagWrongPass = 1;
 704:	81 e0       	ldi	r24, 0x01	; 1
 706:	90 e0       	ldi	r25, 0x00	; 0
 708:	90 93 d3 00 	sts	0x00D3, r25	; 0x8000d3 <__data_end+0x1>
 70c:	80 93 d2 00 	sts	0x00D2, r24	; 0x8000d2 <__data_end>
			buzzerDetection();
 710:	0e 94 b7 01 	call	0x36e	; 0x36e <buzzerDetection>
 714:	21 c0       	rjmp	.+66     	; 0x758 <checkPassword+0x122>
		}	
	} else  {
		lcd_clrscr();
 716:	0e 94 bc 00 	call	0x178	; 0x178 <lcd_clrscr>
		lcd_puts("Tocna lozinka!");
 71a:	87 ea       	ldi	r24, 0xA7	; 167
 71c:	90 e0       	ldi	r25, 0x00	; 0
 71e:	0e 94 d5 00 	call	0x1aa	; 0x1aa <lcd_puts>
		
		buzzerCounter = CONFIRM_SOUND;
 722:	82 e0       	ldi	r24, 0x02	; 2
 724:	90 e0       	ldi	r25, 0x00	; 0
 726:	90 93 ed 00 	sts	0x00ED, r25	; 0x8000ed <buzzerCounter+0x1>
 72a:	80 93 ec 00 	sts	0x00EC, r24	; 0x8000ec <buzzerCounter>
		buzzerDetection();
 72e:	0e 94 b7 01 	call	0x36e	; 0x36e <buzzerDetection>
		
		PORTC ^= _BV(6);
 732:	95 b3       	in	r25, 0x15	; 21
 734:	80 e4       	ldi	r24, 0x40	; 64
 736:	89 27       	eor	r24, r25
 738:	85 bb       	out	0x15, r24	; 21
		PORTA ^= _BV(5);
 73a:	9b b3       	in	r25, 0x1b	; 27
 73c:	80 e2       	ldi	r24, 0x20	; 32
 73e:	89 27       	eor	r24, r25
 740:	8b bb       	out	0x1b, r24	; 27
 742:	bf ef       	ldi	r27, 0xFF	; 255
 744:	2f e7       	ldi	r18, 0x7F	; 127
 746:	86 e1       	ldi	r24, 0x16	; 22
 748:	b1 50       	subi	r27, 0x01	; 1
 74a:	20 40       	sbci	r18, 0x00	; 0
 74c:	80 40       	sbci	r24, 0x00	; 0
 74e:	e1 f7       	brne	.-8      	; 0x748 <checkPassword+0x112>
 750:	00 c0       	rjmp	.+0      	; 0x752 <checkPassword+0x11c>
 752:	00 00       	nop
		
		_delay_ms(1000);
		readPotentiometer();		
 754:	0e 94 89 02 	call	0x512	; 0x512 <readPotentiometer>
 758:	9f ef       	ldi	r25, 0xFF	; 255
 75a:	af eb       	ldi	r26, 0xBF	; 191
 75c:	b1 e2       	ldi	r27, 0x21	; 33
 75e:	91 50       	subi	r25, 0x01	; 1
 760:	a0 40       	sbci	r26, 0x00	; 0
 762:	b0 40       	sbci	r27, 0x00	; 0
 764:	e1 f7       	brne	.-8      	; 0x75e <checkPassword+0x128>
 766:	00 c0       	rjmp	.+0      	; 0x768 <checkPassword+0x132>
 768:	00 00       	nop
	}
	_delay_ms(1500);
	memset(output, '*', sizeof(output)-1);
 76a:	e6 e6       	ldi	r30, 0x66	; 102
 76c:	f0 e0       	ldi	r31, 0x00	; 0
 76e:	8a e2       	ldi	r24, 0x2A	; 42
 770:	9a e2       	ldi	r25, 0x2A	; 42
 772:	91 83       	std	Z+1, r25	; 0x01
 774:	80 83       	st	Z, r24
 776:	93 83       	std	Z+3, r25	; 0x03
 778:	82 83       	std	Z+2, r24	; 0x02
 77a:	08 95       	ret

0000077c <keyPassword>:
}


void keyPassword(){
 77c:	0f 93       	push	r16
 77e:	1f 93       	push	r17
 780:	cf 93       	push	r28
	uint8_t i;
	char pass;
	
	lcd_clrscr();
 782:	0e 94 bc 00 	call	0x178	; 0x178 <lcd_clrscr>
	lcd_puts("Unesite lozinku!");
 786:	86 eb       	ldi	r24, 0xB6	; 182
 788:	90 e0       	ldi	r25, 0x00	; 0
 78a:	0e 94 d5 00 	call	0x1aa	; 0x1aa <lcd_puts>
	
	for(i = 0; i < PASS_LENGHT; i++){
 78e:	c0 e0       	ldi	r28, 0x00	; 0
 790:	11 c0       	rjmp	.+34     	; 0x7b4 <keyPassword+0x38>
		char password = keyfind();
 792:	0e 94 29 01 	call	0x252	; 0x252 <keyfind>
		
		output[i] = password;
 796:	0c 2f       	mov	r16, r28
 798:	10 e0       	ldi	r17, 0x00	; 0
 79a:	0a 59       	subi	r16, 0x9A	; 154
 79c:	1f 4f       	sbci	r17, 0xFF	; 255
 79e:	f8 01       	movw	r30, r16
 7a0:	80 83       	st	Z, r24
		lcd_gotoxy(i+MIDDLE_POSITION,SECOND_ROW);
 7a2:	61 e0       	ldi	r22, 0x01	; 1
 7a4:	85 e0       	ldi	r24, 0x05	; 5
 7a6:	8c 0f       	add	r24, r28
 7a8:	0e 94 b2 00 	call	0x164	; 0x164 <lcd_gotoxy>
		lcd_puts(&output[i]);
 7ac:	c8 01       	movw	r24, r16
 7ae:	0e 94 d5 00 	call	0x1aa	; 0x1aa <lcd_puts>
	char pass;
	
	lcd_clrscr();
	lcd_puts("Unesite lozinku!");
	
	for(i = 0; i < PASS_LENGHT; i++){
 7b2:	cf 5f       	subi	r28, 0xFF	; 255
 7b4:	c4 30       	cpi	r28, 0x04	; 4
 7b6:	68 f3       	brcs	.-38     	; 0x792 <keyPassword+0x16>
		
		output[i] = password;
		lcd_gotoxy(i+MIDDLE_POSITION,SECOND_ROW);
		lcd_puts(&output[i]);
	}
	output[4] = '\0';
 7b8:	10 92 6a 00 	sts	0x006A, r1	; 0x80006a <output+0x4>
	
	pass = keyfind();
 7bc:	0e 94 29 01 	call	0x252	; 0x252 <keyfind>
	if(pass == confirm){
 7c0:	81 34       	cpi	r24, 0x41	; 65
 7c2:	11 f4       	brne	.+4      	; 0x7c8 <keyPassword+0x4c>
		checkPassword();
 7c4:	0e 94 1b 03 	call	0x636	; 0x636 <checkPassword>
	}
}
 7c8:	cf 91       	pop	r28
 7ca:	1f 91       	pop	r17
 7cc:	0f 91       	pop	r16
 7ce:	08 95       	ret

000007d0 <__vector_19>:


ISR(TIMER0_COMP_vect){
 7d0:	1f 92       	push	r1
 7d2:	0f 92       	push	r0
 7d4:	0f b6       	in	r0, 0x3f	; 63
 7d6:	0f 92       	push	r0
 7d8:	11 24       	eor	r1, r1
 7da:	8f 93       	push	r24
 7dc:	9f 93       	push	r25
	PORTA ^= _BV(6);
 7de:	9b b3       	in	r25, 0x1b	; 27
 7e0:	80 e4       	ldi	r24, 0x40	; 64
 7e2:	89 27       	eor	r24, r25
 7e4:	8b bb       	out	0x1b, r24	; 27
}
 7e6:	9f 91       	pop	r25
 7e8:	8f 91       	pop	r24
 7ea:	0f 90       	pop	r0
 7ec:	0f be       	out	0x3f, r0	; 63
 7ee:	0f 90       	pop	r0
 7f0:	1f 90       	pop	r1
 7f2:	18 95       	reti

000007f4 <__vector_6>:


ISR(TIMER1_COMPA_vect){
 7f4:	1f 92       	push	r1
 7f6:	0f 92       	push	r0
 7f8:	0f b6       	in	r0, 0x3f	; 63
 7fa:	0f 92       	push	r0
 7fc:	11 24       	eor	r1, r1
 7fe:	8f 93       	push	r24
 800:	9f 93       	push	r25
	if(doorOpen == 1){
 802:	80 91 ea 00 	lds	r24, 0x00EA	; 0x8000ea <doorOpen>
 806:	90 91 eb 00 	lds	r25, 0x00EB	; 0x8000eb <doorOpen+0x1>
 80a:	01 97       	sbiw	r24, 0x01	; 1
 80c:	21 f4       	brne	.+8      	; 0x816 <__vector_6+0x22>
		PORTD ^= _BV(5);
 80e:	92 b3       	in	r25, 0x12	; 18
 810:	80 e2       	ldi	r24, 0x20	; 32
 812:	89 27       	eor	r24, r25
 814:	82 bb       	out	0x12, r24	; 18
	}
}
 816:	9f 91       	pop	r25
 818:	8f 91       	pop	r24
 81a:	0f 90       	pop	r0
 81c:	0f be       	out	0x3f, r0	; 63
 81e:	0f 90       	pop	r0
 820:	1f 90       	pop	r1
 822:	18 95       	reti

00000824 <initMain>:


void initMain(){
 824:	cf 93       	push	r28
	DDRA |= _BV(6); // contrast
 826:	8a b3       	in	r24, 0x1a	; 26
 828:	80 64       	ori	r24, 0x40	; 64
 82a:	8a bb       	out	0x1a, r24	; 26
	
	DDRB = 0xff; // keypad
 82c:	8f ef       	ldi	r24, 0xFF	; 255
 82e:	87 bb       	out	0x17, r24	; 23
	PORTB = 0x00;
 830:	18 ba       	out	0x18, r1	; 24
	
	DDRC = _BV(7); // active buzzer
 832:	80 e8       	ldi	r24, 0x80	; 128
 834:	84 bb       	out	0x14, r24	; 20
	
	DDRC |= _BV(0) | _BV(1) | _BV(6); // LED diodes red
 836:	84 b3       	in	r24, 0x14	; 20
 838:	83 64       	ori	r24, 0x43	; 67
 83a:	84 bb       	out	0x14, r24	; 20
	PORTC = _BV(7) | _BV(0) | _BV(1) | _BV(6);
 83c:	83 ec       	ldi	r24, 0xC3	; 195
 83e:	85 bb       	out	0x15, r24	; 21
	
	DDRA |= _BV(3) | _BV(4) | _BV(5); // LED diodes green
 840:	8a b3       	in	r24, 0x1a	; 26
 842:	88 63       	ori	r24, 0x38	; 56
 844:	8a bb       	out	0x1a, r24	; 26
	
	DDRD |= _BV(5); // servo motor
 846:	81 b3       	in	r24, 0x11	; 17
 848:	80 62       	ori	r24, 0x20	; 32
 84a:	81 bb       	out	0x11, r24	; 17
	TCNT1 = 0;
 84c:	1d bc       	out	0x2d, r1	; 45
 84e:	1c bc       	out	0x2c, r1	; 44
	ICR1 = 2303; // 50Hz (20 ms) PWM period
 850:	8f ef       	ldi	r24, 0xFF	; 255
 852:	98 e0       	ldi	r25, 0x08	; 8
 854:	97 bd       	out	0x27, r25	; 39
 856:	86 bd       	out	0x26, r24	; 38
	TCCR1A = _BV(WGM11) | _BV(COM1A1); 
 858:	82 e8       	ldi	r24, 0x82	; 130
 85a:	8f bd       	out	0x2f, r24	; 47
	TCCR1B = _BV(WGM12) | _BV(WGM13) | _BV(CS10) | _BV(CS11);
 85c:	8b e1       	ldi	r24, 0x1B	; 27
 85e:	8e bd       	out	0x2e, r24	; 46
	OCR1A = 59; // position -90°
 860:	8b e3       	ldi	r24, 0x3B	; 59
 862:	90 e0       	ldi	r25, 0x00	; 0
 864:	9b bd       	out	0x2b, r25	; 43
 866:	8a bd       	out	0x2a, r24	; 42
	TIMSK = _BV(OCIE1A);
 868:	c0 e1       	ldi	r28, 0x10	; 16
 86a:	c9 bf       	out	0x39, r28	; 57
	
	
	TCCR0 = _BV(WGM01) | _BV(WGM00) | _BV(COM01) | _BV(CS00); 
 86c:	89 e6       	ldi	r24, 0x69	; 105
 86e:	83 bf       	out	0x33, r24	; 51
	OCR0 = 200;
 870:	88 ec       	ldi	r24, 0xC8	; 200
 872:	8c bf       	out	0x3c, r24	; 60
	TIMSK = _BV(OCIE0);
 874:	82 e0       	ldi	r24, 0x02	; 2
 876:	89 bf       	out	0x39, r24	; 57

	sei();
 878:	78 94       	sei
	
	ADMUX = _BV(REFS0);
 87a:	80 e4       	ldi	r24, 0x40	; 64
 87c:	87 b9       	out	0x07, r24	; 7
	ADCSRA = _BV(ADEN) | _BV(ADPS2) | _BV(ADPS1);
 87e:	86 e8       	ldi	r24, 0x86	; 134
 880:	86 b9       	out	0x06, r24	; 6
	
	lcd_init(LCD_DISP_ON);
 882:	8c e0       	ldi	r24, 0x0C	; 12
 884:	0e 94 e4 00 	call	0x1c8	; 0x1c8 <lcd_init>
	lcd_clrscr();
 888:	0e 94 bc 00 	call	0x178	; 0x178 <lcd_clrscr>
	
	memset(potChar, 0, sizeof(potChar));
 88c:	e4 ed       	ldi	r30, 0xD4	; 212
 88e:	f0 e0       	ldi	r31, 0x00	; 0
 890:	df 01       	movw	r26, r30
 892:	1d 92       	st	X+, r1
 894:	ca 95       	dec	r28
 896:	e9 f7       	brne	.-6      	; 0x892 <initMain+0x6e>
}
 898:	cf 91       	pop	r28
 89a:	08 95       	ret

0000089c <main>:


int main(void){
	initMain();
 89c:	0e 94 12 04 	call	0x824	; 0x824 <initMain>
	
	while (1){
		keyPassword();
 8a0:	0e 94 be 03 	call	0x77c	; 0x77c <keyPassword>
 8a4:	fd cf       	rjmp	.-6      	; 0x8a0 <main+0x4>

000008a6 <__fixsfsi>:
 8a6:	0e 94 5a 04 	call	0x8b4	; 0x8b4 <__fixunssfsi>
 8aa:	68 94       	set
 8ac:	b1 11       	cpse	r27, r1
 8ae:	0c 94 e9 04 	jmp	0x9d2	; 0x9d2 <__fp_szero>
 8b2:	08 95       	ret

000008b4 <__fixunssfsi>:
 8b4:	0e 94 ce 04 	call	0x99c	; 0x99c <__fp_splitA>
 8b8:	88 f0       	brcs	.+34     	; 0x8dc <__fixunssfsi+0x28>
 8ba:	9f 57       	subi	r25, 0x7F	; 127
 8bc:	98 f0       	brcs	.+38     	; 0x8e4 <__fixunssfsi+0x30>
 8be:	b9 2f       	mov	r27, r25
 8c0:	99 27       	eor	r25, r25
 8c2:	b7 51       	subi	r27, 0x17	; 23
 8c4:	b0 f0       	brcs	.+44     	; 0x8f2 <__fixunssfsi+0x3e>
 8c6:	e1 f0       	breq	.+56     	; 0x900 <__fixunssfsi+0x4c>
 8c8:	66 0f       	add	r22, r22
 8ca:	77 1f       	adc	r23, r23
 8cc:	88 1f       	adc	r24, r24
 8ce:	99 1f       	adc	r25, r25
 8d0:	1a f0       	brmi	.+6      	; 0x8d8 <__fixunssfsi+0x24>
 8d2:	ba 95       	dec	r27
 8d4:	c9 f7       	brne	.-14     	; 0x8c8 <__fixunssfsi+0x14>
 8d6:	14 c0       	rjmp	.+40     	; 0x900 <__fixunssfsi+0x4c>
 8d8:	b1 30       	cpi	r27, 0x01	; 1
 8da:	91 f0       	breq	.+36     	; 0x900 <__fixunssfsi+0x4c>
 8dc:	0e 94 e8 04 	call	0x9d0	; 0x9d0 <__fp_zero>
 8e0:	b1 e0       	ldi	r27, 0x01	; 1
 8e2:	08 95       	ret
 8e4:	0c 94 e8 04 	jmp	0x9d0	; 0x9d0 <__fp_zero>
 8e8:	67 2f       	mov	r22, r23
 8ea:	78 2f       	mov	r23, r24
 8ec:	88 27       	eor	r24, r24
 8ee:	b8 5f       	subi	r27, 0xF8	; 248
 8f0:	39 f0       	breq	.+14     	; 0x900 <__fixunssfsi+0x4c>
 8f2:	b9 3f       	cpi	r27, 0xF9	; 249
 8f4:	cc f3       	brlt	.-14     	; 0x8e8 <__fixunssfsi+0x34>
 8f6:	86 95       	lsr	r24
 8f8:	77 95       	ror	r23
 8fa:	67 95       	ror	r22
 8fc:	b3 95       	inc	r27
 8fe:	d9 f7       	brne	.-10     	; 0x8f6 <__fixunssfsi+0x42>
 900:	3e f4       	brtc	.+14     	; 0x910 <__fixunssfsi+0x5c>
 902:	90 95       	com	r25
 904:	80 95       	com	r24
 906:	70 95       	com	r23
 908:	61 95       	neg	r22
 90a:	7f 4f       	sbci	r23, 0xFF	; 255
 90c:	8f 4f       	sbci	r24, 0xFF	; 255
 90e:	9f 4f       	sbci	r25, 0xFF	; 255
 910:	08 95       	ret

00000912 <__floatunsisf>:
 912:	e8 94       	clt
 914:	09 c0       	rjmp	.+18     	; 0x928 <__floatsisf+0x12>

00000916 <__floatsisf>:
 916:	97 fb       	bst	r25, 7
 918:	3e f4       	brtc	.+14     	; 0x928 <__floatsisf+0x12>
 91a:	90 95       	com	r25
 91c:	80 95       	com	r24
 91e:	70 95       	com	r23
 920:	61 95       	neg	r22
 922:	7f 4f       	sbci	r23, 0xFF	; 255
 924:	8f 4f       	sbci	r24, 0xFF	; 255
 926:	9f 4f       	sbci	r25, 0xFF	; 255
 928:	99 23       	and	r25, r25
 92a:	a9 f0       	breq	.+42     	; 0x956 <__floatsisf+0x40>
 92c:	f9 2f       	mov	r31, r25
 92e:	96 e9       	ldi	r25, 0x96	; 150
 930:	bb 27       	eor	r27, r27
 932:	93 95       	inc	r25
 934:	f6 95       	lsr	r31
 936:	87 95       	ror	r24
 938:	77 95       	ror	r23
 93a:	67 95       	ror	r22
 93c:	b7 95       	ror	r27
 93e:	f1 11       	cpse	r31, r1
 940:	f8 cf       	rjmp	.-16     	; 0x932 <__floatsisf+0x1c>
 942:	fa f4       	brpl	.+62     	; 0x982 <__floatsisf+0x6c>
 944:	bb 0f       	add	r27, r27
 946:	11 f4       	brne	.+4      	; 0x94c <__floatsisf+0x36>
 948:	60 ff       	sbrs	r22, 0
 94a:	1b c0       	rjmp	.+54     	; 0x982 <__floatsisf+0x6c>
 94c:	6f 5f       	subi	r22, 0xFF	; 255
 94e:	7f 4f       	sbci	r23, 0xFF	; 255
 950:	8f 4f       	sbci	r24, 0xFF	; 255
 952:	9f 4f       	sbci	r25, 0xFF	; 255
 954:	16 c0       	rjmp	.+44     	; 0x982 <__floatsisf+0x6c>
 956:	88 23       	and	r24, r24
 958:	11 f0       	breq	.+4      	; 0x95e <__floatsisf+0x48>
 95a:	96 e9       	ldi	r25, 0x96	; 150
 95c:	11 c0       	rjmp	.+34     	; 0x980 <__floatsisf+0x6a>
 95e:	77 23       	and	r23, r23
 960:	21 f0       	breq	.+8      	; 0x96a <__floatsisf+0x54>
 962:	9e e8       	ldi	r25, 0x8E	; 142
 964:	87 2f       	mov	r24, r23
 966:	76 2f       	mov	r23, r22
 968:	05 c0       	rjmp	.+10     	; 0x974 <__floatsisf+0x5e>
 96a:	66 23       	and	r22, r22
 96c:	71 f0       	breq	.+28     	; 0x98a <__floatsisf+0x74>
 96e:	96 e8       	ldi	r25, 0x86	; 134
 970:	86 2f       	mov	r24, r22
 972:	70 e0       	ldi	r23, 0x00	; 0
 974:	60 e0       	ldi	r22, 0x00	; 0
 976:	2a f0       	brmi	.+10     	; 0x982 <__floatsisf+0x6c>
 978:	9a 95       	dec	r25
 97a:	66 0f       	add	r22, r22
 97c:	77 1f       	adc	r23, r23
 97e:	88 1f       	adc	r24, r24
 980:	da f7       	brpl	.-10     	; 0x978 <__floatsisf+0x62>
 982:	88 0f       	add	r24, r24
 984:	96 95       	lsr	r25
 986:	87 95       	ror	r24
 988:	97 f9       	bld	r25, 7
 98a:	08 95       	ret

0000098c <__fp_split3>:
 98c:	57 fd       	sbrc	r21, 7
 98e:	90 58       	subi	r25, 0x80	; 128
 990:	44 0f       	add	r20, r20
 992:	55 1f       	adc	r21, r21
 994:	59 f0       	breq	.+22     	; 0x9ac <__fp_splitA+0x10>
 996:	5f 3f       	cpi	r21, 0xFF	; 255
 998:	71 f0       	breq	.+28     	; 0x9b6 <__fp_splitA+0x1a>
 99a:	47 95       	ror	r20

0000099c <__fp_splitA>:
 99c:	88 0f       	add	r24, r24
 99e:	97 fb       	bst	r25, 7
 9a0:	99 1f       	adc	r25, r25
 9a2:	61 f0       	breq	.+24     	; 0x9bc <__fp_splitA+0x20>
 9a4:	9f 3f       	cpi	r25, 0xFF	; 255
 9a6:	79 f0       	breq	.+30     	; 0x9c6 <__fp_splitA+0x2a>
 9a8:	87 95       	ror	r24
 9aa:	08 95       	ret
 9ac:	12 16       	cp	r1, r18
 9ae:	13 06       	cpc	r1, r19
 9b0:	14 06       	cpc	r1, r20
 9b2:	55 1f       	adc	r21, r21
 9b4:	f2 cf       	rjmp	.-28     	; 0x99a <__fp_split3+0xe>
 9b6:	46 95       	lsr	r20
 9b8:	f1 df       	rcall	.-30     	; 0x99c <__fp_splitA>
 9ba:	08 c0       	rjmp	.+16     	; 0x9cc <__fp_splitA+0x30>
 9bc:	16 16       	cp	r1, r22
 9be:	17 06       	cpc	r1, r23
 9c0:	18 06       	cpc	r1, r24
 9c2:	99 1f       	adc	r25, r25
 9c4:	f1 cf       	rjmp	.-30     	; 0x9a8 <__fp_splitA+0xc>
 9c6:	86 95       	lsr	r24
 9c8:	71 05       	cpc	r23, r1
 9ca:	61 05       	cpc	r22, r1
 9cc:	08 94       	sec
 9ce:	08 95       	ret

000009d0 <__fp_zero>:
 9d0:	e8 94       	clt

000009d2 <__fp_szero>:
 9d2:	bb 27       	eor	r27, r27
 9d4:	66 27       	eor	r22, r22
 9d6:	77 27       	eor	r23, r23
 9d8:	cb 01       	movw	r24, r22
 9da:	97 f9       	bld	r25, 7
 9dc:	08 95       	ret

000009de <round>:
 9de:	0e 94 ce 04 	call	0x99c	; 0x99c <__fp_splitA>
 9e2:	e8 f0       	brcs	.+58     	; 0xa1e <round+0x40>
 9e4:	9e 37       	cpi	r25, 0x7E	; 126
 9e6:	e8 f0       	brcs	.+58     	; 0xa22 <round+0x44>
 9e8:	96 39       	cpi	r25, 0x96	; 150
 9ea:	b8 f4       	brcc	.+46     	; 0xa1a <round+0x3c>
 9ec:	9e 38       	cpi	r25, 0x8E	; 142
 9ee:	48 f4       	brcc	.+18     	; 0xa02 <round+0x24>
 9f0:	67 2f       	mov	r22, r23
 9f2:	78 2f       	mov	r23, r24
 9f4:	88 27       	eor	r24, r24
 9f6:	98 5f       	subi	r25, 0xF8	; 248
 9f8:	f9 cf       	rjmp	.-14     	; 0x9ec <round+0xe>
 9fa:	86 95       	lsr	r24
 9fc:	77 95       	ror	r23
 9fe:	67 95       	ror	r22
 a00:	93 95       	inc	r25
 a02:	95 39       	cpi	r25, 0x95	; 149
 a04:	d0 f3       	brcs	.-12     	; 0x9fa <round+0x1c>
 a06:	b6 2f       	mov	r27, r22
 a08:	b1 70       	andi	r27, 0x01	; 1
 a0a:	6b 0f       	add	r22, r27
 a0c:	71 1d       	adc	r23, r1
 a0e:	81 1d       	adc	r24, r1
 a10:	20 f4       	brcc	.+8      	; 0xa1a <round+0x3c>
 a12:	87 95       	ror	r24
 a14:	77 95       	ror	r23
 a16:	67 95       	ror	r22
 a18:	93 95       	inc	r25
 a1a:	0c 94 13 05 	jmp	0xa26	; 0xa26 <__fp_mintl>
 a1e:	0c 94 2e 05 	jmp	0xa5c	; 0xa5c <__fp_mpack>
 a22:	0c 94 e9 04 	jmp	0x9d2	; 0x9d2 <__fp_szero>

00000a26 <__fp_mintl>:
 a26:	88 23       	and	r24, r24
 a28:	71 f4       	brne	.+28     	; 0xa46 <__fp_mintl+0x20>
 a2a:	77 23       	and	r23, r23
 a2c:	21 f0       	breq	.+8      	; 0xa36 <__fp_mintl+0x10>
 a2e:	98 50       	subi	r25, 0x08	; 8
 a30:	87 2b       	or	r24, r23
 a32:	76 2f       	mov	r23, r22
 a34:	07 c0       	rjmp	.+14     	; 0xa44 <__fp_mintl+0x1e>
 a36:	66 23       	and	r22, r22
 a38:	11 f4       	brne	.+4      	; 0xa3e <__fp_mintl+0x18>
 a3a:	99 27       	eor	r25, r25
 a3c:	0d c0       	rjmp	.+26     	; 0xa58 <__fp_mintl+0x32>
 a3e:	90 51       	subi	r25, 0x10	; 16
 a40:	86 2b       	or	r24, r22
 a42:	70 e0       	ldi	r23, 0x00	; 0
 a44:	60 e0       	ldi	r22, 0x00	; 0
 a46:	2a f0       	brmi	.+10     	; 0xa52 <__fp_mintl+0x2c>
 a48:	9a 95       	dec	r25
 a4a:	66 0f       	add	r22, r22
 a4c:	77 1f       	adc	r23, r23
 a4e:	88 1f       	adc	r24, r24
 a50:	da f7       	brpl	.-10     	; 0xa48 <__fp_mintl+0x22>
 a52:	88 0f       	add	r24, r24
 a54:	96 95       	lsr	r25
 a56:	87 95       	ror	r24
 a58:	97 f9       	bld	r25, 7
 a5a:	08 95       	ret

00000a5c <__fp_mpack>:
 a5c:	9f 3f       	cpi	r25, 0xFF	; 255
 a5e:	31 f0       	breq	.+12     	; 0xa6c <__fp_mpack_finite+0xc>

00000a60 <__fp_mpack_finite>:
 a60:	91 50       	subi	r25, 0x01	; 1
 a62:	20 f4       	brcc	.+8      	; 0xa6c <__fp_mpack_finite+0xc>
 a64:	87 95       	ror	r24
 a66:	77 95       	ror	r23
 a68:	67 95       	ror	r22
 a6a:	b7 95       	ror	r27
 a6c:	88 0f       	add	r24, r24
 a6e:	91 1d       	adc	r25, r1
 a70:	96 95       	lsr	r25
 a72:	87 95       	ror	r24
 a74:	97 f9       	bld	r25, 7
 a76:	08 95       	ret

00000a78 <__umulhisi3>:
 a78:	a2 9f       	mul	r26, r18
 a7a:	b0 01       	movw	r22, r0
 a7c:	b3 9f       	mul	r27, r19
 a7e:	c0 01       	movw	r24, r0
 a80:	a3 9f       	mul	r26, r19
 a82:	70 0d       	add	r23, r0
 a84:	81 1d       	adc	r24, r1
 a86:	11 24       	eor	r1, r1
 a88:	91 1d       	adc	r25, r1
 a8a:	b2 9f       	mul	r27, r18
 a8c:	70 0d       	add	r23, r0
 a8e:	81 1d       	adc	r24, r1
 a90:	11 24       	eor	r1, r1
 a92:	91 1d       	adc	r25, r1
 a94:	08 95       	ret

00000a96 <strncmp>:
 a96:	fb 01       	movw	r30, r22
 a98:	dc 01       	movw	r26, r24
 a9a:	41 50       	subi	r20, 0x01	; 1
 a9c:	50 40       	sbci	r21, 0x00	; 0
 a9e:	30 f0       	brcs	.+12     	; 0xaac <strncmp+0x16>
 aa0:	8d 91       	ld	r24, X+
 aa2:	01 90       	ld	r0, Z+
 aa4:	80 19       	sub	r24, r0
 aa6:	19 f4       	brne	.+6      	; 0xaae <strncmp+0x18>
 aa8:	00 20       	and	r0, r0
 aaa:	b9 f7       	brne	.-18     	; 0xa9a <strncmp+0x4>
 aac:	88 1b       	sub	r24, r24
 aae:	99 0b       	sbc	r25, r25
 ab0:	08 95       	ret

00000ab2 <__itoa_ncheck>:
 ab2:	bb 27       	eor	r27, r27
 ab4:	4a 30       	cpi	r20, 0x0A	; 10
 ab6:	31 f4       	brne	.+12     	; 0xac4 <__itoa_ncheck+0x12>
 ab8:	99 23       	and	r25, r25
 aba:	22 f4       	brpl	.+8      	; 0xac4 <__itoa_ncheck+0x12>
 abc:	bd e2       	ldi	r27, 0x2D	; 45
 abe:	90 95       	com	r25
 ac0:	81 95       	neg	r24
 ac2:	9f 4f       	sbci	r25, 0xFF	; 255
 ac4:	0c 94 65 05 	jmp	0xaca	; 0xaca <__utoa_common>

00000ac8 <__utoa_ncheck>:
 ac8:	bb 27       	eor	r27, r27

00000aca <__utoa_common>:
 aca:	fb 01       	movw	r30, r22
 acc:	55 27       	eor	r21, r21
 ace:	aa 27       	eor	r26, r26
 ad0:	88 0f       	add	r24, r24
 ad2:	99 1f       	adc	r25, r25
 ad4:	aa 1f       	adc	r26, r26
 ad6:	a4 17       	cp	r26, r20
 ad8:	10 f0       	brcs	.+4      	; 0xade <__utoa_common+0x14>
 ada:	a4 1b       	sub	r26, r20
 adc:	83 95       	inc	r24
 ade:	50 51       	subi	r21, 0x10	; 16
 ae0:	b9 f7       	brne	.-18     	; 0xad0 <__utoa_common+0x6>
 ae2:	a0 5d       	subi	r26, 0xD0	; 208
 ae4:	aa 33       	cpi	r26, 0x3A	; 58
 ae6:	08 f0       	brcs	.+2      	; 0xaea <__utoa_common+0x20>
 ae8:	a9 5d       	subi	r26, 0xD9	; 217
 aea:	a1 93       	st	Z+, r26
 aec:	00 97       	sbiw	r24, 0x00	; 0
 aee:	79 f7       	brne	.-34     	; 0xace <__utoa_common+0x4>
 af0:	b1 11       	cpse	r27, r1
 af2:	b1 93       	st	Z+, r27
 af4:	11 92       	st	Z+, r1
 af6:	cb 01       	movw	r24, r22
 af8:	0c 94 7e 05 	jmp	0xafc	; 0xafc <strrev>

00000afc <strrev>:
 afc:	dc 01       	movw	r26, r24
 afe:	fc 01       	movw	r30, r24
 b00:	67 2f       	mov	r22, r23
 b02:	71 91       	ld	r23, Z+
 b04:	77 23       	and	r23, r23
 b06:	e1 f7       	brne	.-8      	; 0xb00 <strrev+0x4>
 b08:	32 97       	sbiw	r30, 0x02	; 2
 b0a:	04 c0       	rjmp	.+8      	; 0xb14 <strrev+0x18>
 b0c:	7c 91       	ld	r23, X
 b0e:	6d 93       	st	X+, r22
 b10:	70 83       	st	Z, r23
 b12:	62 91       	ld	r22, -Z
 b14:	ae 17       	cp	r26, r30
 b16:	bf 07       	cpc	r27, r31
 b18:	c8 f3       	brcs	.-14     	; 0xb0c <strrev+0x10>
 b1a:	08 95       	ret

00000b1c <_exit>:
 b1c:	f8 94       	cli

00000b1e <__stop_program>:
 b1e:	ff cf       	rjmp	.-2      	; 0xb1e <__stop_program>
